; Function Attrs: nounwind uwtable
define dso_local i32 @archive_write_get_bytes_in_last_block(ptr noundef %0) local_unnamed_addr #3 {
  %2 = tail call i32 @__archive_check_magic(ptr noundef %0, i32 noundef -1329217314, i32 noundef 32767, ptr noundef nonnull @.str.3) #13
  %.not = icmp eq i32 %2, -30
  br i1 %.not, label %6, label %3

3:                                                ; preds = %1
  %4 = getelementptr inbounds nuw i8, ptr %0, i64 228
  %5 = load i32, ptr %4, align 4, !tbaa !20
  br label %6

6:                                                ; preds = %1, %3
  %.1 = phi i32 [ %5, %3 ], [ -30, %1 ]
  ret i32 %.1
}